(i__main__
LogFile
p0
(dp1
S'_installed_files'
p2
(dp3
S'../../../../../../cvmfs/atlas.cern.ch/repo/sw/software/AthAnalysisBase/x86_64-slc6-gcc49-opt/2.4.29/GAUDI/v26r2p1-lcg81e/GaudiPolicy/cmt/fragments/__init__.py'
p4
S'../../InstallArea/python/NtupleMaker/__init__.py'
p5
sS'../../NtupleMaker/genConf/NtupleMaker'
p6
(dp7
S'../../../NtupleMaker/genConf/NtupleMaker/NtupleMakerConf.py'
p8
S'../../InstallArea/python/NtupleMaker/NtupleMakerConf.py'
p9
sssb.